; Function Attrs: mustprogress nofree norecurse nounwind willreturn memory(argmem: readwrite) uwtable
define void @_ZN6icu_7513OlsonTimeZone20clearTransitionRulesEv(ptr nocapture noundef nonnull writeonly align 8 dereferenceable(224) %this) local_unnamed_addr #4 align 2 personality ptr @__gxx_personality_v0 {
entry:
  %initialRule = getelementptr inbounds i8, ptr %this, i64 160
  %firstFinalTZTransition = getelementptr inbounds i8, ptr %this, i64 184
  %finalZoneWithStartYear = getelementptr inbounds i8, ptr %this, i64 208
  store ptr null, ptr %finalZoneWithStartYear, align 8
  %transitionRulesInitOnce = getelementptr inbounds i8, ptr %this, i64 216
  tail call void @llvm.memset.p0.i64(ptr noundef nonnull align 8 dereferenceable(18) %initialRule, i8 0, i64 18, i1 false)
  tail call void @llvm.memset.p0.i64(ptr noundef nonnull align 8 dereferenceable(18) %firstFinalTZTransition, i8 0, i64 18, i1 false)
  store atomic i32 0, ptr %transitionRulesInitOnce seq_cst, align 8
  ret void
}